target datalayout = "e-m:e-p270:32:32-p271:32:32-p272:64:64-i64:64-i128:128-f80:128-n8:16:32:64-S128"
target triple = "x86_64-pc-linux-gnu"

%struct.anon = type { ptr, ptr, ptr, i32 }
%struct.fsck_options = type { ptr, ptr, i32, i32, ptr, %struct.oidset, %struct.oidset, %struct.oidset, %struct.oidset, %struct.oidset, ptr }
%struct.oidset = type { %struct.kh_oid_set }
%struct.kh_oid_set = type { i32, i32, i32, i32, ptr, ptr, ptr }

@.str.106 = private unnamed_addr constant [27 x i8] c"size_t overflow: %lu * %lu\00", align 1

; Function Attrs: nounwind uwtable
define internal i32 @fsck_msg_type(i32 noundef %0, ptr noundef %1) #0 {
  %3 = alloca i32, align 4
  %4 = alloca i32, align 4
  %5 = alloca ptr, align 8
  %6 = alloca i32, align 4
  store i32 %0, ptr %4, align 4, !tbaa !11
  store ptr %1, ptr %5, align 8, !tbaa !24
  %7 = load ptr, ptr %5, align 8, !tbaa !24
  %8 = getelementptr inbounds nuw %struct.fsck_options, ptr %7, i32 0, i32 4
  %9 = load ptr, ptr %8, align 8, !tbaa !26
  %10 = icmp ne ptr %9, null
  br i1 %10, label %27, label %11

11:                                               ; preds = %2
  call void @llvm.lifetime.start.p0(i64 4, ptr %6) #11
  %12 = load i32, ptr %4, align 4, !tbaa !11
  %13 = zext i32 %12 to i64
  %14 = getelementptr inbounds nuw [67 x %struct.anon], ptr @msg_id_info, i64 0, i64 %13
  %15 = getelementptr inbounds nuw %struct.anon, ptr %14, i32 0, i32 3
  %16 = load i32, ptr %15, align 8, !tbaa !37
  store i32 %16, ptr %6, align 4, !tbaa !11
  %17 = load ptr, ptr %5, align 8, !tbaa !24
  %18 = getelementptr inbounds nuw %struct.fsck_options, ptr %17, i32 0, i32 2
  %19 = load i32, ptr %18, align 8, !tbaa !38
  %20 = icmp ne i32 %19, 0
  br i1 %20, label %21, label %25

21:                                               ; preds = %11
  %22 = load i32, ptr %6, align 4, !tbaa !11
  %23 = icmp eq i32 %22, 4
  br i1 %23, label %24, label %25

24:                                               ; preds = %21
  store i32 3, ptr %6, align 4, !tbaa !11
  br label %25

25:                                               ; preds = %24, %21, %11
  %26 = load i32, ptr %6, align 4, !tbaa !11
  store i32 %26, ptr %3, align 4
  call void @llvm.lifetime.end.p0(i64 4, ptr %6) #11
  br label %35

27:                                               ; preds = %2
  %28 = load ptr, ptr %5, align 8, !tbaa !24
  %29 = getelementptr inbounds nuw %struct.fsck_options, ptr %28, i32 0, i32 4
  %30 = load ptr, ptr %29, align 8, !tbaa !26
  %31 = load i32, ptr %4, align 4, !tbaa !11
  %32 = zext i32 %31 to i64
  %33 = getelementptr inbounds nuw i32, ptr %30, i64 %32
  %34 = load i32, ptr %33, align 4, !tbaa !11
  store i32 %34, ptr %3, align 4
  br label %35

35:                                               ; preds = %27, %25
  %36 = load i32, ptr %3, align 4
  ret i32 %36
}

; Function Attrs: inlinehint nounwind uwtable
define internal i64 @st_mult(i64 noundef %0, i64 noundef %1) #2 {
  %3 = alloca i64, align 8
  %4 = alloca i64, align 8
  store i64 %0, ptr %3, align 8, !tbaa !35
  store i64 %1, ptr %4, align 8, !tbaa !35
  %5 = load i64, ptr %3, align 8, !tbaa !35
  %6 = icmp ne i64 %5, 0
  br i1 %6, label %7, label %15

7:                                                ; preds = %2
  %8 = load i64, ptr %4, align 8, !tbaa !35
  %9 = load i64, ptr %3, align 8, !tbaa !35
  %10 = udiv i64 -1, %9
  %11 = icmp ugt i64 %8, %10
  br i1 %11, label %12, label %15

12:                                               ; preds = %7
  %13 = load i64, ptr %3, align 8, !tbaa !35
  %14 = load i64, ptr %4, align 8, !tbaa !35
  call void (ptr, ...) @die(ptr noundef @.str.106, i64 noundef %13, i64 noundef %14) #13
  unreachable

15:                                               ; preds = %7, %2
  %16 = load i64, ptr %3, align 8, !tbaa !35
  %17 = load i64, ptr %4, align 8, !tbaa !35
  %18 = mul i64 %16, %17
  ret i64 %18
}

; Function Attrs: nounwind uwtable
define dso_local void @fsck_set_msg_type_from_ids(ptr noundef %0, i32 noundef %1, i32 noundef %2) #0 {
  %4 = alloca ptr, align 8
  %5 = alloca i32, align 4
  %6 = alloca i32, align 4
  %7 = alloca i32, align 4
  %8 = alloca ptr, align 8
  store ptr %0, ptr %4, align 8, !tbaa !24
  store i32 %1, ptr %5, align 4, !tbaa !11
  store i32 %2, ptr %6, align 4, !tbaa !11
  %9 = load ptr, ptr %4, align 8, !tbaa !24
  %10 = getelementptr inbounds nuw %struct.fsck_options, ptr %9, i32 0, i32 4
  %11 = load ptr, ptr %10, align 8, !tbaa !26
  %12 = icmp ne ptr %11, null
  br i1 %12, label %34, label %13

13:                                               ; preds = %3
  call void @llvm.lifetime.start.p0(i64 4, ptr %7) #11
  call void @llvm.lifetime.start.p0(i64 8, ptr %8) #11
  %14 = call i64 @st_mult(i64 noundef 4, i64 noundef 66)
  %15 = call ptr @xmalloc(i64 noundef %14)
  store ptr %15, ptr %8, align 8, !tbaa !33
  store i32 0, ptr %7, align 4, !tbaa !11
  br label %16

16:                                               ; preds = %27, %13
  %17 = load i32, ptr %7, align 4, !tbaa !11
  %18 = icmp slt i32 %17, 66
  br i1 %18, label %19, label %30

19:                                               ; preds = %16
  %20 = load i32, ptr %7, align 4, !tbaa !11
  %21 = load ptr, ptr %4, align 8, !tbaa !24
  %22 = call i32 @fsck_msg_type(i32 noundef %20, ptr noundef %21)
  %23 = load ptr, ptr %8, align 8, !tbaa !33
  %24 = load i32, ptr %7, align 4, !tbaa !11
  %25 = sext i32 %24 to i64
  %26 = getelementptr inbounds i32, ptr %23, i64 %25
  store i32 %22, ptr %26, align 4, !tbaa !11
  br label %27

27:                                               ; preds = %19
  %28 = load i32, ptr %7, align 4, !tbaa !11
  %29 = add nsw i32 %28, 1
  store i32 %29, ptr %7, align 4, !tbaa !11
  br label %16, !llvm.loop !34

30:                                               ; preds = %16
  %31 = load ptr, ptr %8, align 8, !tbaa !33
  %32 = load ptr, ptr %4, align 8, !tbaa !24
  %33 = getelementptr inbounds nuw %struct.fsck_options, ptr %32, i32 0, i32 4
  store ptr %31, ptr %33, align 8, !tbaa !26
  call void @llvm.lifetime.end.p0(i64 8, ptr %8) #11
  call void @llvm.lifetime.end.p0(i64 4, ptr %7) #11
  br label %34

34:                                               ; preds = %30, %3
  %35 = load i32, ptr %6, align 4, !tbaa !11
  %36 = load ptr, ptr %4, align 8, !tbaa !24
  %37 = getelementptr inbounds nuw %struct.fsck_options, ptr %36, i32 0, i32 4
  %38 = load ptr, ptr %37, align 8, !tbaa !26
  %39 = load i32, ptr %5, align 4, !tbaa !11
  %40 = zext i32 %39 to i64
  %41 = getelementptr inbounds nuw i32, ptr %38, i64 %40
  store i32 %35, ptr %41, align 4, !tbaa !11
  ret void
}