; Function Attrs: nounwind uwtable
define dso_local void @fsck_set_msg_type_from_ids(ptr noundef captures(none) %0, i32 noundef %1, i32 noundef %2) local_unnamed_addr #0 {
  %4 = getelementptr inbounds nuw i8, ptr %0, i64 24
  %5 = load ptr, ptr %4, align 8, !tbaa !20
  %.not = icmp eq ptr %5, null
  br i1 %.not, label %6, label %19

6:                                                ; preds = %3
  %7 = tail call ptr @xmalloc(i64 noundef 264) #16
  %8 = load ptr, ptr %4, align 8, !tbaa !20
  %.not.i = icmp eq ptr %8, null
  %9 = getelementptr inbounds nuw i8, ptr %0, i64 16
  br i1 %.not.i, label %fsck_msg_type.exit.us, label %fsck_msg_type.exit

fsck_msg_type.exit.us:                            ; preds = %6, %fsck_msg_type.exit.us
  %indvars.iv16 = phi i64 [ %indvars.iv.next17, %fsck_msg_type.exit.us ], [ 0, %6 ]
  %10 = getelementptr inbounds nuw [67 x %struct.anon], ptr @msg_id_info, i64 0, i64 %indvars.iv16, i32 3
  %11 = load i32, ptr %10, align 8, !tbaa !27
  %12 = load i32, ptr %9, align 8, !tbaa !28
  %13 = icmp ne i32 %12, 0
  %14 = icmp eq i32 %11, 4
  %or.cond.i.us = select i1 %13, i1 %14, i1 false
  %spec.store.select.i.us = select i1 %or.cond.i.us, i32 3, i32 %11
  %15 = getelementptr inbounds nuw i32, ptr %7, i64 %indvars.iv16
  store i32 %spec.store.select.i.us, ptr %15, align 4, !tbaa !29
  %indvars.iv.next17 = add nuw nsw i64 %indvars.iv16, 1
  %exitcond19.not = icmp eq i64 %indvars.iv.next17, 66
  br i1 %exitcond19.not, label %.split13.us, label %fsck_msg_type.exit.us, !llvm.loop !30

fsck_msg_type.exit:                               ; preds = %6, %fsck_msg_type.exit
  %indvars.iv = phi i64 [ %indvars.iv.next, %fsck_msg_type.exit ], [ 0, %6 ]
  %16 = getelementptr inbounds nuw i32, ptr %8, i64 %indvars.iv
  %17 = load i32, ptr %16, align 4, !tbaa !29
  %18 = getelementptr inbounds nuw i32, ptr %7, i64 %indvars.iv
  store i32 %17, ptr %18, align 4, !tbaa !29
  %indvars.iv.next = add nuw nsw i64 %indvars.iv, 1
  %exitcond.not = icmp eq i64 %indvars.iv.next, 66
  br i1 %exitcond.not, label %.split13.us, label %fsck_msg_type.exit, !llvm.loop !30

.split13.us:                                      ; preds = %fsck_msg_type.exit, %fsck_msg_type.exit.us
  store ptr %7, ptr %4, align 8, !tbaa !20
  br label %19

19:                                               ; preds = %.split13.us, %3
  %20 = phi ptr [ %7, %.split13.us ], [ %5, %3 ]
  %21 = zext i32 %1 to i64
  %22 = getelementptr inbounds nuw i32, ptr %20, i64 %21
  store i32 %2, ptr %22, align 4, !tbaa !29
  ret void
}